; Function Attrs: mustprogress uwtable
define void @_ZN4toku3wfg11apply_nodesEPFimPvES1_(ptr noundef nonnull readonly align 8 captures(none) dereferenceable(24) %0, ptr noundef readonly captures(none) %1, ptr noundef %2) local_unnamed_addr #0 align 2 {
  %4 = load i8, ptr %0, align 8, !tbaa !4, !range !12, !noundef !13
  %5 = trunc nuw i8 %4 to i1
  br i1 %5, label %6, label %8

6:                                                ; preds = %3
  %7 = getelementptr inbounds nuw i8, ptr %0, i64 12
  br label %_ZNK4toku3omtIPNS_3wfg4nodeES3_Lb0EE4sizeEv.exit

8:                                                ; preds = %3
  %9 = getelementptr inbounds nuw i8, ptr %0, i64 8
  %10 = load i32, ptr %9, align 8, !tbaa !14
  %11 = icmp eq i32 %10, -1
  br i1 %11, label %._crit_edge, label %12

12:                                               ; preds = %8
  %13 = getelementptr inbounds nuw i8, ptr %0, i64 16
  %14 = load ptr, ptr %13, align 8, !tbaa !11
  %15 = zext i32 %10 to i64
  %16 = getelementptr inbounds nuw %"class.toku::omt_internal::omt_node_templated", ptr %14, i64 %15, i32 1
  br label %_ZNK4toku3omtIPNS_3wfg4nodeES3_Lb0EE4sizeEv.exit

_ZNK4toku3omtIPNS_3wfg4nodeES3_Lb0EE4sizeEv.exit: ; preds = %6, %12
  %.0.i.in = phi ptr [ %7, %6 ], [ %16, %12 ]
  %.0.i = load i32, ptr %.0.i.in, align 4, !tbaa !11
  %.not = icmp eq i32 %.0.i, 0
  br i1 %.not, label %._crit_edge, label %.lr.ph

.lr.ph:                                           ; preds = %_ZNK4toku3omtIPNS_3wfg4nodeES3_Lb0EE4sizeEv.exit
  %17 = getelementptr inbounds nuw i8, ptr %0, i64 8
  %18 = getelementptr inbounds nuw i8, ptr %0, i64 16
  %19 = getelementptr inbounds nuw i8, ptr %0, i64 12
  br label %20

._crit_edge:                                      ; preds = %23, %_ZNK4toku3omtIPNS_3wfg4nodeES3_Lb0EE4sizeEv.exit.thread10.i, %_ZNK4toku3omtIPNS_3wfg4nodeES3_Lb0EE4sizeEv.exit.i, %_ZNK4toku3omtIPNS_3wfg4nodeES3_Lb0EE5fetchEjPS3_.exit.thread, %8, %_ZNK4toku3omtIPNS_3wfg4nodeES3_Lb0EE4sizeEv.exit
  ret void

20:                                               ; preds = %.lr.ph, %_ZNK4toku3omtIPNS_3wfg4nodeES3_Lb0EE5fetchEjPS3_.exit.thread
  %.017 = phi i32 [ 0, %.lr.ph ], [ %55, %_ZNK4toku3omtIPNS_3wfg4nodeES3_Lb0EE5fetchEjPS3_.exit.thread ]
  %21 = load i8, ptr %0, align 8, !tbaa !4, !range !12, !noundef !13
  %22 = trunc nuw i8 %21 to i1
  br i1 %22, label %_ZNK4toku3omtIPNS_3wfg4nodeES3_Lb0EE4sizeEv.exit.i, label %23

23:                                               ; preds = %20
  %24 = load i32, ptr %17, align 8, !tbaa !14
  %25 = icmp eq i32 %24, -1
  br i1 %25, label %._crit_edge, label %_ZNK4toku3omtIPNS_3wfg4nodeES3_Lb0EE4sizeEv.exit.thread10.i

_ZNK4toku3omtIPNS_3wfg4nodeES3_Lb0EE4sizeEv.exit.i: ; preds = %20
  %26 = load i32, ptr %19, align 4, !tbaa !11
  %.not.i = icmp ult i32 %.017, %26
  br i1 %.not.i, label %31, label %._crit_edge

_ZNK4toku3omtIPNS_3wfg4nodeES3_Lb0EE4sizeEv.exit.thread10.i: ; preds = %23
  %27 = load ptr, ptr %18, align 8, !tbaa !11
  %28 = zext i32 %24 to i64
  %29 = getelementptr inbounds nuw %"class.toku::omt_internal::omt_node_templated", ptr %27, i64 %28, i32 1
  %30 = load i32, ptr %29, align 8, !tbaa !16
  %.not12.i = icmp ult i32 %.017, %30
  br i1 %.not12.i, label %tailrecurse.outer.i.i, label %._crit_edge

31:                                               ; preds = %_ZNK4toku3omtIPNS_3wfg4nodeES3_Lb0EE4sizeEv.exit.i
  %32 = load ptr, ptr %18, align 8, !tbaa !11
  %33 = load i32, ptr %17, align 8, !tbaa !11
  %34 = add i32 %33, %.017
  %35 = zext i32 %34 to i64
  %36 = getelementptr inbounds nuw ptr, ptr %32, i64 %35
  br label %_ZNK4toku3omtIPNS_3wfg4nodeES3_Lb0EE5fetchEjPS3_.exit.thread

tailrecurse.outer.i.i:                            ; preds = %_ZNK4toku3omtIPNS_3wfg4nodeES3_Lb0EE4sizeEv.exit.thread10.i, %48
  %.pre.i.i = phi i32 [ %.pre.i.pre.i, %48 ], [ %24, %_ZNK4toku3omtIPNS_3wfg4nodeES3_Lb0EE4sizeEv.exit.thread10.i ]
  %.tr21.ph.i.i = phi i32 [ %51, %48 ], [ %.017, %_ZNK4toku3omtIPNS_3wfg4nodeES3_Lb0EE4sizeEv.exit.thread10.i ]
  br label %tailrecurse.i.i

tailrecurse.i.i:                                  ; preds = %_ZNK4toku3omtIPNS_3wfg4nodeES3_Lb0EE7nweightERKNS_12omt_internal17subtree_templatedILb0EEE.exit.i.i, %tailrecurse.outer.i.i
  %37 = phi i32 [ %41, %_ZNK4toku3omtIPNS_3wfg4nodeES3_Lb0EE7nweightERKNS_12omt_internal17subtree_templatedILb0EEE.exit.i.i ], [ %.pre.i.i, %tailrecurse.outer.i.i ]
  %38 = zext i32 %37 to i64
  %39 = getelementptr inbounds nuw %"class.toku::omt_internal::omt_node_templated", ptr %27, i64 %38
  %40 = getelementptr inbounds nuw i8, ptr %39, i64 12
  %41 = load i32, ptr %40, align 4, !tbaa !14
  %42 = icmp eq i32 %41, -1
  br i1 %42, label %_ZNK4toku3omtIPNS_3wfg4nodeES3_Lb0EE7nweightERKNS_12omt_internal17subtree_templatedILb0EEE.exit.thread.i.i, label %_ZNK4toku3omtIPNS_3wfg4nodeES3_Lb0EE7nweightERKNS_12omt_internal17subtree_templatedILb0EEE.exit.i.i

_ZNK4toku3omtIPNS_3wfg4nodeES3_Lb0EE7nweightERKNS_12omt_internal17subtree_templatedILb0EEE.exit.i.i: ; preds = %tailrecurse.i.i
  %43 = zext i32 %41 to i64
  %44 = getelementptr inbounds nuw %"class.toku::omt_internal::omt_node_templated", ptr %27, i64 %43, i32 1
  %45 = load i32, ptr %44, align 8, !tbaa !16
  %46 = icmp ult i32 %.tr21.ph.i.i, %45
  br i1 %46, label %tailrecurse.i.i, label %_ZNK4toku3omtIPNS_3wfg4nodeES3_Lb0EE7nweightERKNS_12omt_internal17subtree_templatedILb0EEE.exit.thread.i.i

_ZNK4toku3omtIPNS_3wfg4nodeES3_Lb0EE7nweightERKNS_12omt_internal17subtree_templatedILb0EEE.exit.thread.i.i: ; preds = %_ZNK4toku3omtIPNS_3wfg4nodeES3_Lb0EE7nweightERKNS_12omt_internal17subtree_templatedILb0EEE.exit.i.i, %tailrecurse.i.i
  %.0.i19.i.i = phi i32 [ %45, %_ZNK4toku3omtIPNS_3wfg4nodeES3_Lb0EE7nweightERKNS_12omt_internal17subtree_templatedILb0EEE.exit.i.i ], [ 0, %tailrecurse.i.i ]
  %47 = icmp eq i32 %.tr21.ph.i.i, %.0.i19.i.i
  br i1 %47, label %_ZNK4toku3omtIPNS_3wfg4nodeES3_Lb0EE5fetchEjPS3_.exit.thread, label %48

48:                                               ; preds = %_ZNK4toku3omtIPNS_3wfg4nodeES3_Lb0EE7nweightERKNS_12omt_internal17subtree_templatedILb0EEE.exit.thread.i.i
  %49 = getelementptr inbounds nuw i8, ptr %39, i64 16
  %50 = xor i32 %.0.i19.i.i, -1
  %51 = add i32 %.tr21.ph.i.i, %50
  %.pre.i.pre.i = load i32, ptr %49, align 4, !tbaa !14
  br label %tailrecurse.outer.i.i

_ZNK4toku3omtIPNS_3wfg4nodeES3_Lb0EE5fetchEjPS3_.exit.thread: ; preds = %_ZNK4toku3omtIPNS_3wfg4nodeES3_Lb0EE7nweightERKNS_12omt_internal17subtree_templatedILb0EEE.exit.thread.i.i, %31
  %.sink.in.i = phi ptr [ %36, %31 ], [ %39, %_ZNK4toku3omtIPNS_3wfg4nodeES3_Lb0EE7nweightERKNS_12omt_internal17subtree_templatedILb0EEE.exit.thread.i.i ]
  %.sink.i = load ptr, ptr %.sink.in.i, align 8, !tbaa !20
  %52 = load i64, ptr %.sink.i, align 8, !tbaa !23
  %53 = tail call noundef i32 %1(i64 noundef %52, ptr noundef %2)
  %54 = icmp eq i32 %53, 0
  %55 = add nuw i32 %.017, 1
  %56 = icmp ult i32 %55, %.0.i
  %57 = and i1 %54, %56
  br i1 %57, label %20, label %._crit_edge, !llvm.loop !37
}